target datalayout = "e-m:e-p270:32:32-p271:32:32-p272:64:64-i64:64-i128:128-f80:128-n8:16:32:64-S128"
target triple = "x86_64-pc-linux-gnu"

%"class.cv::Mat" = type { i32, i32, i32, i32, ptr, ptr, ptr, ptr, ptr, ptr, %"struct.cv::MatSize", %"struct.cv::MatStep" }
%"struct.cv::MatSize" = type { ptr }
%"struct.cv::MatStep" = type { ptr, [2 x i64] }
%"class.cv::_InputArray" = type { i32, ptr, %"class.cv::Size_" }
%"class.cv::Size_" = type { i32, i32 }
%"class.cv::Scalar_" = type { %"class.cv::Vec" }
%"class.cv::Vec" = type { %"class.cv::Matx" }
%"class.cv::Matx" = type { [4 x double] }
%"class.cv::MatExpr" = type { ptr, i32, %"class.cv::Mat", %"class.cv::Mat", %"class.cv::Mat", double, double, %"class.cv::Scalar_" }

; Function Attrs: inlinehint mustprogress nounwind uwtable
define linkonce_odr hidden void @_ZN2cv4MatxIdLi4ELi1EEC2Ev(ptr noundef nonnull align 8 dereferenceable(32) %0) unnamed_addr #3 comdat align 2 {
  %2 = alloca ptr, align 8
  %3 = alloca i32, align 4
  store ptr %0, ptr %2, align 8, !tbaa !89
  %4 = load ptr, ptr %2, align 8
  call void @llvm.lifetime.start.p0(i64 4, ptr %3) #24
  store i32 0, ptr %3, align 4, !tbaa !3
  br label %5

5:                                                ; preds = %14, %1
  %6 = load i32, ptr %3, align 4, !tbaa !3
  %7 = icmp slt i32 %6, 4
  br i1 %7, label %9, label %8

8:                                                ; preds = %5
  call void @llvm.lifetime.end.p0(i64 4, ptr %3) #24
  br label %17

9:                                                ; preds = %5
  %10 = getelementptr inbounds nuw %"class.cv::Matx", ptr %4, i32 0, i32 0
  %11 = load i32, ptr %3, align 4, !tbaa !3
  %12 = sext i32 %11 to i64
  %13 = getelementptr inbounds [4 x double], ptr %10, i64 0, i64 %12
  store double 0.000000e+00, ptr %13, align 8, !tbaa !7
  br label %14

14:                                               ; preds = %9
  %15 = load i32, ptr %3, align 4, !tbaa !3
  %16 = add nsw i32 %15, 1
  store i32 %16, ptr %3, align 4, !tbaa !3
  br label %5, !llvm.loop !338

17:                                               ; preds = %8
  ret void
}

; Function Attrs: inlinehint mustprogress uwtable
define linkonce_odr hidden void @_ZN2cv3VecIdLi4EEC2Ev(ptr noundef nonnull align 8 dereferenceable(32) %0) unnamed_addr #6 comdat align 2 {
  %2 = alloca ptr, align 8
  store ptr %0, ptr %2, align 8, !tbaa !336
  %3 = load ptr, ptr %2, align 8
  call void @_ZN2cv4MatxIdLi4ELi1EEC2Ev(ptr noundef nonnull align 8 dereferenceable(32) %3)
  ret void
}

; Function Attrs: inlinehint mustprogress nounwind uwtable
define linkonce_odr hidden noundef zeroext i1 @_ZNK2cv3Mat12isContinuousEv(ptr noundef nonnull align 8 dereferenceable(96) %0) #3 comdat align 2 {
  %2 = alloca ptr, align 8
  store ptr %0, ptr %2, align 8, !tbaa !52
  %3 = load ptr, ptr %2, align 8
  %4 = getelementptr inbounds nuw %"class.cv::Mat", ptr %3, i32 0, i32 0
  %5 = load i32, ptr %4, align 8, !tbaa !80
  %6 = and i32 %5, 16384
  %7 = icmp ne i32 %6, 0
  ret i1 %7
}

; Function Attrs: inlinehint mustprogress nounwind uwtable
define linkonce_odr hidden void @_ZN2cv11_InputArrayD2Ev(ptr noundef nonnull align 8 dereferenceable(24) %0) unnamed_addr #3 comdat align 2 {
  %2 = alloca ptr, align 8
  store ptr %0, ptr %2, align 8, !tbaa !12
  ret void
}

; Function Attrs: inlinehint mustprogress uwtable
define linkonce_odr hidden void @_ZN2cv7Scalar_IdEC2Ed(ptr noundef nonnull align 8 dereferenceable(32) %0, double noundef %1) unnamed_addr #6 comdat align 2 {
  %3 = alloca ptr, align 8
  %4 = alloca double, align 8
  store ptr %0, ptr %3, align 8, !tbaa !87
  store double %1, ptr %4, align 8, !tbaa !7
  %5 = load ptr, ptr %3, align 8
  call void @_ZN2cv3VecIdLi4EEC2Ev(ptr noundef nonnull align 8 dereferenceable(32) %5)
  %6 = load double, ptr %4, align 8, !tbaa !7
  %7 = getelementptr inbounds nuw %"class.cv::Matx", ptr %5, i32 0, i32 0
  %8 = getelementptr inbounds [4 x double], ptr %7, i64 0, i64 0
  store double %6, ptr %8, align 8, !tbaa !7
  %9 = getelementptr inbounds nuw %"class.cv::Matx", ptr %5, i32 0, i32 0
  %10 = getelementptr inbounds [4 x double], ptr %9, i64 0, i64 3
  store double 0.000000e+00, ptr %10, align 8, !tbaa !7
  %11 = getelementptr inbounds nuw %"class.cv::Matx", ptr %5, i32 0, i32 0
  %12 = getelementptr inbounds [4 x double], ptr %11, i64 0, i64 2
  store double 0.000000e+00, ptr %12, align 8, !tbaa !7
  %13 = getelementptr inbounds nuw %"class.cv::Matx", ptr %5, i32 0, i32 0
  %14 = getelementptr inbounds [4 x double], ptr %13, i64 0, i64 1
  store double 0.000000e+00, ptr %14, align 8, !tbaa !7
  ret void
}

; Function Attrs: inlinehint mustprogress uwtable
define linkonce_odr hidden noundef nonnull align 8 dereferenceable(8) ptr @_ZNK2cv3Mat2atIdEERKT_i(ptr noundef nonnull align 8 dereferenceable(96) %0, i32 noundef %1) #6 comdat align 2 {
  %3 = alloca ptr, align 8
  %4 = alloca ptr, align 8
  %5 = alloca i32, align 4
  %6 = alloca i32, align 4
  %7 = alloca i32, align 4
  store ptr %0, ptr %4, align 8, !tbaa !52
  store i32 %1, ptr %5, align 4, !tbaa !3
  %8 = load ptr, ptr %4, align 8
  %9 = call noundef zeroext i1 @_ZNK2cv3Mat12isContinuousEv(ptr noundef nonnull align 8 dereferenceable(96) %8)
  br i1 %9, label %17, label %10

10:                                               ; preds = %2
  %11 = getelementptr inbounds nuw %"class.cv::Mat", ptr %8, i32 0, i32 10
  %12 = getelementptr inbounds nuw %"struct.cv::MatSize", ptr %11, i32 0, i32 0
  %13 = load ptr, ptr %12, align 8, !tbaa !95
  %14 = getelementptr inbounds i32, ptr %13, i64 0
  %15 = load i32, ptr %14, align 4, !tbaa !3
  %16 = icmp eq i32 %15, 1
  br i1 %16, label %17, label %23

17:                                               ; preds = %10, %2
  %18 = getelementptr inbounds nuw %"class.cv::Mat", ptr %8, i32 0, i32 4
  %19 = load ptr, ptr %18, align 8, !tbaa !93
  %20 = load i32, ptr %5, align 4, !tbaa !3
  %21 = sext i32 %20 to i64
  %22 = getelementptr inbounds double, ptr %19, i64 %21
  store ptr %22, ptr %3, align 8
  br label %67

23:                                               ; preds = %10
  %24 = getelementptr inbounds nuw %"class.cv::Mat", ptr %8, i32 0, i32 10
  %25 = getelementptr inbounds nuw %"struct.cv::MatSize", ptr %24, i32 0, i32 0
  %26 = load ptr, ptr %25, align 8, !tbaa !95
  %27 = getelementptr inbounds i32, ptr %26, i64 1
  %28 = load i32, ptr %27, align 4, !tbaa !3
  %29 = icmp eq i32 %28, 1
  br i1 %29, label %30, label %42

30:                                               ; preds = %23
  %31 = getelementptr inbounds nuw %"class.cv::Mat", ptr %8, i32 0, i32 4
  %32 = load ptr, ptr %31, align 8, !tbaa !93
  %33 = getelementptr inbounds nuw %"class.cv::Mat", ptr %8, i32 0, i32 11
  %34 = getelementptr inbounds nuw %"struct.cv::MatStep", ptr %33, i32 0, i32 0
  %35 = load ptr, ptr %34, align 8, !tbaa !94
  %36 = getelementptr inbounds i64, ptr %35, i64 0
  %37 = load i64, ptr %36, align 8, !tbaa !91
  %38 = load i32, ptr %5, align 4, !tbaa !3
  %39 = sext i32 %38 to i64
  %40 = mul i64 %37, %39
  %41 = getelementptr inbounds nuw i8, ptr %32, i64 %40
  store ptr %41, ptr %3, align 8
  br label %67

42:                                               ; preds = %23
  call void @llvm.lifetime.start.p0(i64 4, ptr %6) #24
  %43 = load i32, ptr %5, align 4, !tbaa !3
  %44 = getelementptr inbounds nuw %"class.cv::Mat", ptr %8, i32 0, i32 3
  %45 = load i32, ptr %44, align 4, !tbaa !96
  %46 = sdiv i32 %43, %45
  store i32 %46, ptr %6, align 4, !tbaa !3
  call void @llvm.lifetime.start.p0(i64 4, ptr %7) #24
  %47 = load i32, ptr %5, align 4, !tbaa !3
  %48 = load i32, ptr %6, align 4, !tbaa !3
  %49 = getelementptr inbounds nuw %"class.cv::Mat", ptr %8, i32 0, i32 3
  %50 = load i32, ptr %49, align 4, !tbaa !96
  %51 = mul nsw i32 %48, %50
  %52 = sub nsw i32 %47, %51
  store i32 %52, ptr %7, align 4, !tbaa !3
  %53 = getelementptr inbounds nuw %"class.cv::Mat", ptr %8, i32 0, i32 4
  %54 = load ptr, ptr %53, align 8, !tbaa !93
  %55 = getelementptr inbounds nuw %"class.cv::Mat", ptr %8, i32 0, i32 11
  %56 = getelementptr inbounds nuw %"struct.cv::MatStep", ptr %55, i32 0, i32 0
  %57 = load ptr, ptr %56, align 8, !tbaa !94
  %58 = getelementptr inbounds i64, ptr %57, i64 0
  %59 = load i64, ptr %58, align 8, !tbaa !91
  %60 = load i32, ptr %6, align 4, !tbaa !3
  %61 = sext i32 %60 to i64
  %62 = mul i64 %59, %61
  %63 = getelementptr inbounds nuw i8, ptr %54, i64 %62
  %64 = load i32, ptr %7, align 4, !tbaa !3
  %65 = sext i32 %64 to i64
  %66 = getelementptr inbounds double, ptr %63, i64 %65
  store ptr %66, ptr %3, align 8
  call void @llvm.lifetime.end.p0(i64 4, ptr %7) #24
  call void @llvm.lifetime.end.p0(i64 4, ptr %6) #24
  br label %67

67:                                               ; preds = %42, %30, %17
  %68 = load ptr, ptr %3, align 8
  ret ptr %68
}

; Function Attrs: mustprogress uwtable
define internal noundef i32 @_ZN2cv11xfeatures2dL15quantize_radiusEfiRKNS_3MatE(float noundef %0, i32 noundef %1, ptr noundef nonnull align 8 dereferenceable(96) %2) #4 personality ptr @__gxx_personality_v0 {
  %4 = alloca i32, align 4
  %5 = alloca float, align 4
  %6 = alloca i32, align 4
  %7 = alloca ptr, align 8
  %8 = alloca [2 x i32], align 4
  %9 = alloca %"class.cv::_InputArray", align 8
  %10 = alloca %"class.cv::MatExpr", align 8
  %11 = alloca %"class.cv::MatExpr", align 8
  %12 = alloca %"class.cv::Scalar_", align 8
  %13 = alloca ptr, align 8
  %14 = alloca i32, align 4
  store float %0, ptr %5, align 4, !tbaa !109
  store i32 %1, ptr %6, align 4, !tbaa !3
  store ptr %2, ptr %7, align 8, !tbaa !52
  %15 = load float, ptr %5, align 4, !tbaa !109
  %16 = fpext float %15 to double
  %17 = load ptr, ptr %7, align 8, !tbaa !52
  %18 = call noundef nonnull align 8 dereferenceable(8) ptr @_ZNK2cv3Mat2atIdEERKT_i(ptr noundef nonnull align 8 dereferenceable(96) %17, i32 noundef 0)
  %19 = load double, ptr %18, align 8, !tbaa !7
  %20 = fcmp ole double %16, %19
  br i1 %20, label %21, label %22

21:                                               ; preds = %3
  store i32 0, ptr %4, align 4
  br label %60

22:                                               ; preds = %3
  %23 = load float, ptr %5, align 4, !tbaa !109
  %24 = fpext float %23 to double
  %25 = load ptr, ptr %7, align 8, !tbaa !52
  %26 = load i32, ptr %6, align 4, !tbaa !3
  %27 = sub nsw i32 %26, 1
  %28 = call noundef nonnull align 8 dereferenceable(8) ptr @_ZNK2cv3Mat2atIdEERKT_i(ptr noundef nonnull align 8 dereferenceable(96) %25, i32 noundef %27)
  %29 = load double, ptr %28, align 8, !tbaa !7
  %30 = fcmp oge double %24, %29
  br i1 %30, label %31, label %34

31:                                               ; preds = %22
  %32 = load i32, ptr %6, align 4, !tbaa !3
  %33 = sub nsw i32 %32, 1
  store i32 %33, ptr %4, align 4
  br label %60

34:                                               ; preds = %22
  call void @llvm.lifetime.start.p0(i64 8, ptr %8) #24
  call void @llvm.lifetime.start.p0(i64 24, ptr %9) #24
  call void @llvm.lifetime.start.p0(i64 352, ptr %10) #24
  call void @llvm.lifetime.start.p0(i64 352, ptr %11) #24
  %35 = load ptr, ptr %7, align 8, !tbaa !52
  call void @llvm.lifetime.start.p0(i64 32, ptr %12) #24
  %36 = load float, ptr %5, align 4, !tbaa !109
  %37 = fpext float %36 to double
  call void @_ZN2cv7Scalar_IdEC2Ed(ptr noundef nonnull align 8 dereferenceable(32) %12, double noundef %37)
  call void @_ZN2cvmiERKNS_3MatERKNS_7Scalar_IdEE(ptr dead_on_unwind writable sret(%"class.cv::MatExpr") align 8 %11, ptr noundef nonnull align 8 dereferenceable(96) %35, ptr noundef nonnull align 8 dereferenceable(32) %12)
  invoke void @_ZN2cv3absERKNS_7MatExprE(ptr dead_on_unwind writable sret(%"class.cv::MatExpr") align 8 %10, ptr noundef nonnull align 8 dereferenceable(352) %11)
          to label %38 unwind label %46

38:                                               ; preds = %34
  invoke void @_ZN2cv11_InputArrayC1ERKNS_7MatExprE(ptr noundef nonnull align 8 dereferenceable(24) %9, ptr noundef nonnull align 8 dereferenceable(352) %10)
          to label %39 unwind label %50

39:                                               ; preds = %38
  %40 = getelementptr inbounds [2 x i32], ptr %8, i64 0, i64 0
  %41 = invoke noundef nonnull align 8 dereferenceable(24) ptr @_ZN2cv7noArrayEv()
          to label %42 unwind label %54

42:                                               ; preds = %39
  invoke void @_ZN2cv9minMaxIdxERKNS_11_InputArrayEPdS3_PiS4_S2_(ptr noundef nonnull align 8 dereferenceable(24) %9, ptr noundef null, ptr noundef null, ptr noundef %40, ptr noundef null, ptr noundef nonnull align 8 dereferenceable(24) %41)
          to label %43 unwind label %54

43:                                               ; preds = %42
  call void @_ZN2cv11_InputArrayD2Ev(ptr noundef nonnull align 8 dereferenceable(24) %9) #24
  call void @_ZN2cv7MatExprD2Ev(ptr noundef nonnull align 8 dereferenceable(352) %10) #24
  call void @_ZN2cv7MatExprD2Ev(ptr noundef nonnull align 8 dereferenceable(352) %11) #24
  call void @llvm.lifetime.end.p0(i64 32, ptr %12) #24
  call void @llvm.lifetime.end.p0(i64 352, ptr %11) #24
  call void @llvm.lifetime.end.p0(i64 352, ptr %10) #24
  call void @llvm.lifetime.end.p0(i64 24, ptr %9) #24
  %44 = getelementptr inbounds [2 x i32], ptr %8, i64 0, i64 1
  %45 = load i32, ptr %44, align 4, !tbaa !3
  store i32 %45, ptr %4, align 4
  call void @llvm.lifetime.end.p0(i64 8, ptr %8) #24
  br label %60

46:                                               ; preds = %34
  %47 = landingpad { ptr, i32 }
          cleanup
  %48 = extractvalue { ptr, i32 } %47, 0
  store ptr %48, ptr %13, align 8
  %49 = extractvalue { ptr, i32 } %47, 1
  store i32 %49, ptr %14, align 4
  br label %59

50:                                               ; preds = %38
  %51 = landingpad { ptr, i32 }
          cleanup
  %52 = extractvalue { ptr, i32 } %51, 0
  store ptr %52, ptr %13, align 8
  %53 = extractvalue { ptr, i32 } %51, 1
  store i32 %53, ptr %14, align 4
  br label %58

54:                                               ; preds = %42, %39
  %55 = landingpad { ptr, i32 }
          cleanup
  %56 = extractvalue { ptr, i32 } %55, 0
  store ptr %56, ptr %13, align 8
  %57 = extractvalue { ptr, i32 } %55, 1
  store i32 %57, ptr %14, align 4
  call void @_ZN2cv11_InputArrayD2Ev(ptr noundef nonnull align 8 dereferenceable(24) %9) #24
  br label %58

58:                                               ; preds = %54, %50
  call void @_ZN2cv7MatExprD2Ev(ptr noundef nonnull align 8 dereferenceable(352) %10) #24
  br label %59

59:                                               ; preds = %58, %46
  call void @_ZN2cv7MatExprD2Ev(ptr noundef nonnull align 8 dereferenceable(352) %11) #24
  call void @llvm.lifetime.end.p0(i64 32, ptr %12) #24
  call void @llvm.lifetime.end.p0(i64 352, ptr %11) #24
  call void @llvm.lifetime.end.p0(i64 352, ptr %10) #24
  call void @llvm.lifetime.end.p0(i64 24, ptr %9) #24
  call void @llvm.lifetime.end.p0(i64 8, ptr %8) #24
  br label %62

60:                                               ; preds = %43, %31, %21
  %61 = load i32, ptr %4, align 4
  ret i32 %61

62:                                               ; preds = %59
  %63 = load ptr, ptr %13, align 8
  %64 = load i32, ptr %14, align 4
  %65 = insertvalue { ptr, i32 } poison, ptr %63, 0
  %66 = insertvalue { ptr, i32 } %65, i32 %64, 1
  resume { ptr, i32 } %66
}