; Function Attrs: mustprogress uwtable
define internal fastcc noundef i32 @_ZN2cv11xfeatures2dL15quantize_radiusEfiRKNS_3MatE(float noundef %0, i32 noundef %1, ptr noundef nonnull align 8 dereferenceable(96) %2) unnamed_addr #1 personality ptr @__gxx_personality_v0 {
_ZNK2cv3Mat2atIdEERKT_i.exit:
  %3 = alloca [2 x i32], align 4
  %4 = alloca %"class.cv::_InputArray", align 8
  %5 = alloca %"class.cv::MatExpr", align 8
  %6 = alloca %"class.cv::MatExpr", align 8
  %7 = alloca %"class.cv::Scalar_", align 8
  %8 = fpext float %0 to double
  %.0.i.in = getelementptr inbounds nuw i8, ptr %2, i64 16
  %.0.i = load ptr, ptr %.0.i.in, align 8, !tbaa !53
  %9 = load double, ptr %.0.i, align 8, !tbaa !44
  %10 = fcmp ult double %9, %8
  br i1 %10, label %11, label %72

11:                                               ; preds = %_ZNK2cv3Mat2atIdEERKT_i.exit
  %12 = load i32, ptr %2, align 8, !tbaa !71
  %13 = and i32 %12, 16384
  %.not.i = icmp eq i32 %13, 0
  %14 = add nsw i32 %1, -1
  br i1 %.not.i, label %15, label %20

15:                                               ; preds = %11
  %16 = getelementptr inbounds nuw i8, ptr %2, i64 64
  %17 = load ptr, ptr %16, align 8, !tbaa !72
  %18 = load i32, ptr %17, align 4, !tbaa !38
  %19 = icmp eq i32 %18, 1
  br i1 %19, label %20, label %23

20:                                               ; preds = %15, %11
  %21 = sext i32 %14 to i64
  %22 = getelementptr inbounds double, ptr %.0.i, i64 %21
  br label %_ZNK2cv3Mat2atIdEERKT_i.exit18

23:                                               ; preds = %15
  %24 = getelementptr inbounds nuw i8, ptr %17, i64 4
  %25 = load i32, ptr %24, align 4, !tbaa !38
  %26 = icmp eq i32 %25, 1
  br i1 %26, label %27, label %34

27:                                               ; preds = %23
  %28 = getelementptr inbounds nuw i8, ptr %2, i64 72
  %29 = load ptr, ptr %28, align 8, !tbaa !54
  %30 = load i64, ptr %29, align 8, !tbaa !52
  %31 = sext i32 %14 to i64
  %32 = mul i64 %30, %31
  %33 = getelementptr inbounds nuw i8, ptr %.0.i, i64 %32
  br label %_ZNK2cv3Mat2atIdEERKT_i.exit18

34:                                               ; preds = %23
  %35 = getelementptr inbounds nuw i8, ptr %2, i64 12
  %36 = load i32, ptr %35, align 4, !tbaa !73
  %37 = sdiv i32 %14, %36
  %38 = mul nsw i32 %37, %36
  %.recomposed = srem i32 %14, %36
  %39 = getelementptr inbounds nuw i8, ptr %2, i64 72
  %40 = load ptr, ptr %39, align 8, !tbaa !54
  %41 = load i64, ptr %40, align 8, !tbaa !52
  %42 = sext i32 %37 to i64
  %43 = mul i64 %41, %42
  %44 = getelementptr inbounds nuw i8, ptr %.0.i, i64 %43
  %45 = sext i32 %.recomposed to i64
  %46 = getelementptr inbounds double, ptr %44, i64 %45
  br label %_ZNK2cv3Mat2atIdEERKT_i.exit18

_ZNK2cv3Mat2atIdEERKT_i.exit18:                   ; preds = %20, %27, %34
  %.0.i17 = phi ptr [ %22, %20 ], [ %33, %27 ], [ %46, %34 ]
  %47 = load double, ptr %.0.i17, align 8, !tbaa !44
  %48 = fcmp ugt double %47, %8
  br i1 %48, label %49, label %72

49:                                               ; preds = %_ZNK2cv3Mat2atIdEERKT_i.exit18
  call void @llvm.lifetime.start.p0(i64 8, ptr nonnull %3) #28
  call void @llvm.lifetime.start.p0(i64 24, ptr nonnull %4) #28
  call void @llvm.lifetime.start.p0(i64 352, ptr nonnull %5) #28
  call void @llvm.lifetime.start.p0(i64 352, ptr nonnull %6) #28
  call void @llvm.lifetime.start.p0(i64 32, ptr nonnull %7) #28
  store double %8, ptr %7, align 8, !tbaa !44
  %50 = getelementptr inbounds nuw i8, ptr %7, i64 8
  call void @llvm.memset.p0.i64(ptr noundef nonnull align 8 dereferenceable(24) %50, i8 0, i64 24, i1 false)
  call void @_ZN2cvmiERKNS_3MatERKNS_7Scalar_IdEE(ptr dead_on_unwind nonnull writable sret(%"class.cv::MatExpr") align 8 %6, ptr noundef nonnull align 8 dereferenceable(96) %2, ptr noundef nonnull align 8 dereferenceable(32) %7)
  invoke void @_ZN2cv3absERKNS_7MatExprE(ptr dead_on_unwind nonnull writable sret(%"class.cv::MatExpr") align 8 %5, ptr noundef nonnull align 8 dereferenceable(352) %6)
          to label %51 unwind label %64

51:                                               ; preds = %49
  invoke void @_ZN2cv11_InputArrayC1ERKNS_7MatExprE(ptr noundef nonnull align 8 dereferenceable(24) %4, ptr noundef nonnull align 8 dereferenceable(352) %5)
          to label %52 unwind label %66

52:                                               ; preds = %51
  %53 = invoke noundef nonnull align 8 dereferenceable(24) ptr @_ZN2cv7noArrayEv()
          to label %54 unwind label %68

54:                                               ; preds = %52
  invoke void @_ZN2cv9minMaxIdxERKNS_11_InputArrayEPdS3_PiS4_S2_(ptr noundef nonnull align 8 dereferenceable(24) %4, ptr noundef null, ptr noundef null, ptr noundef nonnull %3, ptr noundef null, ptr noundef nonnull align 8 dereferenceable(24) %53)
          to label %55 unwind label %68

55:                                               ; preds = %54
  %56 = getelementptr inbounds nuw i8, ptr %5, i64 208
  call void @_ZN2cv3MatD1Ev(ptr noundef nonnull align 8 dereferenceable(96) %56) #28
  %57 = getelementptr inbounds nuw i8, ptr %5, i64 112
  call void @_ZN2cv3MatD1Ev(ptr noundef nonnull align 8 dereferenceable(96) %57) #28
  %58 = getelementptr inbounds nuw i8, ptr %5, i64 16
  call void @_ZN2cv3MatD1Ev(ptr noundef nonnull align 8 dereferenceable(96) %58) #28
  %59 = getelementptr inbounds nuw i8, ptr %6, i64 208
  call void @_ZN2cv3MatD1Ev(ptr noundef nonnull align 8 dereferenceable(96) %59) #28
  %60 = getelementptr inbounds nuw i8, ptr %6, i64 112
  call void @_ZN2cv3MatD1Ev(ptr noundef nonnull align 8 dereferenceable(96) %60) #28
  %61 = getelementptr inbounds nuw i8, ptr %6, i64 16
  call void @_ZN2cv3MatD1Ev(ptr noundef nonnull align 8 dereferenceable(96) %61) #28
  call void @llvm.lifetime.end.p0(i64 32, ptr nonnull %7) #28
  call void @llvm.lifetime.end.p0(i64 352, ptr nonnull %6) #28
  call void @llvm.lifetime.end.p0(i64 352, ptr nonnull %5) #28
  call void @llvm.lifetime.end.p0(i64 24, ptr nonnull %4) #28
  %62 = getelementptr inbounds nuw i8, ptr %3, i64 4
  %63 = load i32, ptr %62, align 4, !tbaa !38
  call void @llvm.lifetime.end.p0(i64 8, ptr nonnull %3) #28
  br label %72

64:                                               ; preds = %49
  %65 = landingpad { ptr, i32 }
          cleanup
  br label %71

66:                                               ; preds = %51
  %67 = landingpad { ptr, i32 }
          cleanup
  br label %70

68:                                               ; preds = %54, %52
  %69 = landingpad { ptr, i32 }
          cleanup
  br label %70

70:                                               ; preds = %68, %66
  %.pn = phi { ptr, i32 } [ %69, %68 ], [ %67, %66 ]
  call void @_ZN2cv7MatExprD2Ev(ptr noundef nonnull align 8 dereferenceable(352) %5) #28
  br label %71

71:                                               ; preds = %70, %64
  %.pn.pn = phi { ptr, i32 } [ %.pn, %70 ], [ %65, %64 ]
  call void @_ZN2cv7MatExprD2Ev(ptr noundef nonnull align 8 dereferenceable(352) %6) #28
  call void @llvm.lifetime.end.p0(i64 32, ptr nonnull %7) #28
  call void @llvm.lifetime.end.p0(i64 352, ptr nonnull %6) #28
  call void @llvm.lifetime.end.p0(i64 352, ptr nonnull %5) #28
  call void @llvm.lifetime.end.p0(i64 24, ptr nonnull %4) #28
  call void @llvm.lifetime.end.p0(i64 8, ptr nonnull %3) #28
  resume { ptr, i32 } %.pn.pn

72:                                               ; preds = %_ZNK2cv3Mat2atIdEERKT_i.exit18, %_ZNK2cv3Mat2atIdEERKT_i.exit, %55
  %.012 = phi i32 [ %63, %55 ], [ 0, %_ZNK2cv3Mat2atIdEERKT_i.exit ], [ %14, %_ZNK2cv3Mat2atIdEERKT_i.exit18 ]
  ret i32 %.012
}